# SymbolsHelper-Confirmed: 6.6.0 amd64 arm64 armel armhf hppa i386 loong64 powerpc ppc64 ppc64el riscv64 s390x sh4
libQt6Bluetooth.so.6 libqt6bluetooth6 #MINVER#
* Build-Depends-Package: qt6-connectivity-dev
 Qt_6@Qt_6 6.6.0
 Qt_6_PRIVATE_API@Qt_6_PRIVATE_API 6.6.0
 _Z17bluetoothdVersionv@Qt_6 6.6.0
 _Z38qRegisterNormalizedMetaType_ServiceMapRK10QByteArray@Qt_6 6.6.0
 _Z42qRegisterNormalizedMetaType_QBluetoothUuidRK10QByteArray@Qt_6 6.6.0
 _Z45qRegisterNormalizedMetaType_QBluetoothAddressRK10QByteArray@Qt_6 6.6.0
 _Z46qRegisterNormalizedMetaType_QBluetoothHostInfoRK10QByteArray@Qt_6 6.6.0
 _Z48qRegisterNormalizedMetaType_QBluetoothDeviceInfoRK10QByteArray@Qt_6 6.6.0
 _Z48qRegisterNormalizedMetaType_QLowEnergyDescriptorRK10QByteArray@Qt_6 6.6.0
 _Z49qRegisterNormalizedMetaType_QBluetoothServiceInfoRK10QByteArray@Qt_6 6.6.0
 _Z52qRegisterNormalizedMetaType_QLowEnergyCharacteristicRK10QByteArray@Qt_6 6.6.0
 _Z54qRegisterNormalizedMetaType_QLowEnergyController__RoleRK10QByteArray@Qt_6 6.6.0
 _Z55qRegisterNormalizedMetaType_QLowEnergyController__ErrorRK10QByteArray@Qt_6 6.6.0
 _Z56qRegisterNormalizedMetaType_QBluetoothLocalDevice__ErrorRK10QByteArray@Qt_6 6.6.0
 _Z56qRegisterNormalizedMetaType_QLowEnergyService__WriteModeRK10QByteArray@Qt_6 6.6.0
 _Z58qRegisterNormalizedMetaType_QBluetoothLocalDevice__PairingRK10QByteArray@Qt_6 6.6.0
 _Z58qRegisterNormalizedMetaType_QLowEnergyConnectionParametersRK10QByteArray@Qt_6 6.6.0
 _Z58qRegisterNormalizedMetaType_QLowEnergyService__ServiceTypeRK10QByteArray@Qt_6 6.6.0
 _Z59qRegisterNormalizedMetaType_QBluetoothLocalDevice__HostModeRK10QByteArray@Qt_6 6.6.0
 _Z59qRegisterNormalizedMetaType_QBluetoothServiceInfo__SequenceRK10QByteArray@Qt_6 6.6.0
 _Z59qRegisterNormalizedMetaType_QLowEnergyService__ServiceErrorRK10QByteArray@Qt_6 6.6.0
 _Z59qRegisterNormalizedMetaType_QLowEnergyService__ServiceStateRK10QByteArray@Qt_6 6.6.0
 _Z62qRegisterNormalizedMetaType_QBluetoothServiceInfo__AlternativeRK10QByteArray@Qt_6 6.6.0
 _Z65qRegisterNormalizedMetaType_QLowEnergyController__ControllerStateRK10QByteArray@Qt_6 6.6.0
 _Z67qRegisterNormalizedMetaType_QLowEnergyController__RemoteAddressTypeRK10QByteArray@Qt_6 6.6.0
 _ZGVZN9QMetaType21registerConverterImplI14QSharedPointerI24QLowEnergyServicePrivateEP7QObjectEEbSt8functionIFbPKvPvEES_S_E10unregister@Qt_6_PRIVATE_API 6.6.0
 _ZGVZN9QMetaType21registerConverterImplI4QMapI15QDBusObjectPathS1_I7QStringS1_IS3_8QVariantEEE9QIterableI16QMetaAssociationEEEbSt8functionIFbPKvPvEES_S_E10unregister@Qt_6 6.6.0
 _ZGVZN9QMetaType21registerConverterImplI4QMapI7QString12QDBusVariantE9QIterableI16QMetaAssociationEEEbSt8functionIFbPKvPvEES_S_E10unregister@Qt_6 6.6.0
 _ZGVZN9QMetaType21registerConverterImplI4QMapI7QStringS1_IS2_8QVariantEE9QIterableI16QMetaAssociationEEEbSt8functionIFbPKvPvEES_S_E10unregister@Qt_6 6.6.0
 _ZGVZN9QMetaType21registerConverterImplI4QMapIj7QStringE9QIterableI16QMetaAssociationEEEbSt8functionIFbPKvPvEES_S_E10unregister@Qt_6 6.6.0
 _ZGVZN9QMetaType21registerConverterImplI4QMapIt12QDBusVariantE9QIterableI16QMetaAssociationEEEbSt8functionIFbPKvPvEES_S_E10unregister@Qt_6 6.6.0
 _ZGVZN9QMetaType21registerConverterImplI5QListI15QDBusObjectPathE9QIterableI13QMetaSequenceEEEbSt8functionIFbPKvPvEES_S_E10unregister@Qt_6 6.6.0
 _ZGVZN9QMetaType21registerConverterImplI5QListItE9QIterableI13QMetaSequenceEEEbSt8functionIFbPKvPvEES_S_E10unregister@Qt_6 6.6.0
 _ZGVZN9QMetaType23registerMutableViewImplI4QMapI15QDBusObjectPathS1_I7QStringS1_IS3_8QVariantEEE9QIterableI16QMetaAssociationEEEbSt8functionIFbPvSC_EES_S_E10unregister@Qt_6 6.6.0
 _ZGVZN9QMetaType23registerMutableViewImplI4QMapI7QString12QDBusVariantE9QIterableI16QMetaAssociationEEEbSt8functionIFbPvS9_EES_S_E10unregister@Qt_6 6.6.0
 _ZGVZN9QMetaType23registerMutableViewImplI4QMapI7QStringS1_IS2_8QVariantEE9QIterableI16QMetaAssociationEEEbSt8functionIFbPvSA_EES_S_E10unregister@Qt_6 6.6.0
 _ZGVZN9QMetaType23registerMutableViewImplI4QMapIj7QStringE9QIterableI16QMetaAssociationEEEbSt8functionIFbPvS8_EES_S_E10unregister@Qt_6 6.6.0
 _ZGVZN9QMetaType23registerMutableViewImplI4QMapIt12QDBusVariantE9QIterableI16QMetaAssociationEEEbSt8functionIFbPvS8_EES_S_E10unregister@Qt_6 6.6.0
 _ZGVZN9QMetaType23registerMutableViewImplI5QListI15QDBusObjectPathE9QIterableI13QMetaSequenceEEEbSt8functionIFbPvS8_EES_S_E10unregister@Qt_6 6.6.0
 _ZGVZN9QMetaType23registerMutableViewImplI5QListItE9QIterableI13QMetaSequenceEEEbSt8functionIFbPvS7_EES_S_E10unregister@Qt_6 6.6.0
 _ZN10QBluetooth16staticMetaObjectE@Qt_6 6.6.0
 _ZN13QMetaSequence12MetaSequenceI5QListI15QDBusObjectPathEE5valueE@Qt_6 6.6.0
 _ZN13QMetaSequence12MetaSequenceI5QListItEE5valueE@Qt_6 6.6.0
 _ZN14QBluetoothUuid16protocolToStringENS_12ProtocolUuidE@Qt_6 6.6.0
 _ZN14QBluetoothUuid17streamingOperatorE6QDebugRKS_@Qt_6 6.6.0
 _ZN14QBluetoothUuid18descriptorToStringENS_14DescriptorTypeE@Qt_6 6.6.0
 _ZN14QBluetoothUuid20serviceClassToStringENS_16ServiceClassUuidE@Qt_6 6.6.0
 _ZN14QBluetoothUuid22characteristicToStringENS_18CharacteristicTypeE@Qt_6 6.6.0
 _ZN14QBluetoothUuidC1E8quint128@Qt_6 6.6.0
 _ZN14QBluetoothUuidC1ERK5QUuid@Qt_6 6.6.0
 _ZN14QBluetoothUuidC1ERK7QString@Qt_6 6.6.0
 _ZN14QBluetoothUuidC2E8quint128@Qt_6 6.6.0
 _ZN14QBluetoothUuidC2ERK5QUuid@Qt_6 6.6.0
 _ZN14QBluetoothUuidC2ERK7QString@Qt_6 6.6.0
 _ZN16QBluetoothServer11qt_metacallEN11QMetaObject4CallEiPPv@Qt_6 6.6.0
 _ZN16QBluetoothServer11qt_metacastEPKc@Qt_6 6.6.0
 _ZN16QBluetoothServer13errorOccurredENS_5ErrorE@Qt_6 6.6.0
 _ZN16QBluetoothServer13newConnectionEv@Qt_6 6.6.0
 _ZN16QBluetoothServer16setSecurityFlagsE6QFlagsIN10QBluetooth8SecurityEE@Qt_6 6.6.0
 _ZN16QBluetoothServer16staticMetaObjectE@Qt_6 6.6.0
 _ZN16QBluetoothServer21nextPendingConnectionEv@Qt_6 6.6.0
 _ZN16QBluetoothServer24setMaxPendingConnectionsEi@Qt_6 6.6.0
 _ZN16QBluetoothServer5closeEv@Qt_6 6.6.0
 _ZN16QBluetoothServer6listenERK14QBluetoothUuidRK7QString@Qt_6 6.6.0
 _ZN16QBluetoothServer6listenERK17QBluetoothAddresst@Qt_6 6.6.0
 _ZN16QBluetoothServerC1EN21QBluetoothServiceInfo8ProtocolEP7QObject@Qt_6 6.6.0
 _ZN16QBluetoothServerC2EN21QBluetoothServiceInfo8ProtocolEP7QObject@Qt_6 6.6.0
 _ZN16QBluetoothServerD0Ev@Qt_6 6.6.0
 _ZN16QBluetoothServerD1Ev@Qt_6 6.6.0
 _ZN16QBluetoothServerD2Ev@Qt_6 6.6.0
 _ZN16QBluetoothSocket11qt_metacallEN11QMetaObject4CallEiPPv@Qt_6 6.6.0
 _ZN16QBluetoothSocket11qt_metacastEPKc@Qt_6 6.6.0
 _ZN16QBluetoothSocket12disconnectedEv@Qt_6 6.6.0
 _ZN16QBluetoothSocket12stateChangedENS_11SocketStateE@Qt_6 6.6.0
 _ZN16QBluetoothSocket13errorOccurredENS_11SocketErrorE@Qt_6 6.6.0
 _ZN16QBluetoothSocket14setSocketErrorENS_11SocketErrorE@Qt_6 6.6.0
 _ZN16QBluetoothSocket14setSocketStateENS_11SocketStateE@Qt_6 6.6.0
 _ZN16QBluetoothSocket16connectToServiceERK17QBluetoothAddressRK14QBluetoothUuid6QFlagsIN13QIODeviceBase12OpenModeFlagEE@Qt_6 6.6.0
 _ZN16QBluetoothSocket16connectToServiceERK17QBluetoothAddresst6QFlagsIN13QIODeviceBase12OpenModeFlagEE@Qt_6 6.6.0
 _ZN16QBluetoothSocket16connectToServiceERK21QBluetoothServiceInfo6QFlagsIN13QIODeviceBase12OpenModeFlagEE@Qt_6 6.6.0
 _ZN16QBluetoothSocket16staticMetaObjectE@Qt_6 6.6.0
 _ZN16QBluetoothSocket17discoveryFinishedEv@Qt_6 6.6.0
 _ZN16QBluetoothSocket17doDeviceDiscoveryERK21QBluetoothServiceInfo6QFlagsIN13QIODeviceBase12OpenModeFlagEE@Qt_6 6.6.0
 _ZN16QBluetoothSocket17serviceDiscoveredERK21QBluetoothServiceInfo@Qt_6 6.6.0
 _ZN16QBluetoothSocket19setSocketDescriptorEiN21QBluetoothServiceInfo8ProtocolENS_11SocketStateE6QFlagsIN13QIODeviceBase12OpenModeFlagEE@Qt_6 6.6.0
 _ZN16QBluetoothSocket21disconnectFromServiceEv@Qt_6 6.6.0
 _ZN16QBluetoothSocket25setPreferredSecurityFlagsE6QFlagsIN10QBluetooth8SecurityEE@Qt_6 6.6.0
 _ZN16QBluetoothSocket5abortEv@Qt_6 6.6.0
 _ZN16QBluetoothSocket5closeEv@Qt_6 6.6.0
 _ZN16QBluetoothSocket8readDataEPcx@Qt_6 6.6.0
 _ZN16QBluetoothSocket9connectedEv@Qt_6 6.6.0
 _ZN16QBluetoothSocket9writeDataEPKcx@Qt_6 6.6.0
 _ZN16QBluetoothSocketC1EN21QBluetoothServiceInfo8ProtocolEP7QObject@Qt_6 6.6.0
 _ZN16QBluetoothSocketC1EP27QBluetoothSocketBasePrivateN21QBluetoothServiceInfo8ProtocolEP7QObject@Qt_6_PRIVATE_API 6.6.0
 _ZN16QBluetoothSocketC1EP7QObject@Qt_6 6.6.0
 _ZN16QBluetoothSocketC2EN21QBluetoothServiceInfo8ProtocolEP7QObject@Qt_6 6.6.0
 _ZN16QBluetoothSocketC2EP27QBluetoothSocketBasePrivateN21QBluetoothServiceInfo8ProtocolEP7QObject@Qt_6_PRIVATE_API 6.6.0
 _ZN16QBluetoothSocketC2EP7QObject@Qt_6 6.6.0
 _ZN16QBluetoothSocketD0Ev@Qt_6 6.6.0
 _ZN16QBluetoothSocketD1Ev@Qt_6 6.6.0
 _ZN16QBluetoothSocketD2Ev@Qt_6 6.6.0
 _ZN16QMetaAssociation15MetaAssociationI4QMapI15QDBusObjectPathS1_I7QStringS1_IS3_8QVariantEEEE5valueE@Qt_6 6.6.0
 _ZN16QMetaAssociation15MetaAssociationI4QMapI7QString12QDBusVariantEE5valueE@Qt_6 6.6.0
 _ZN16QMetaAssociation15MetaAssociationI4QMapI7QStringS1_IS2_8QVariantEEE5valueE@Qt_6 6.6.0
 _ZN16QMetaAssociation15MetaAssociationI4QMapIj7QStringEE5valueE@Qt_6 6.6.0
 _ZN16QMetaAssociation15MetaAssociationI4QMapIt12QDBusVariantEE5valueE@Qt_6 6.6.0
 _ZN17QBluetoothAddress17streamingOperatorE6QDebugRKS_@Qt_6 6.6.0
 _ZN17QBluetoothAddress5clearEv@Qt_6 6.6.0
 _ZN17QBluetoothAddressC1ERK7QString@Qt_6 6.6.0
 _ZN17QBluetoothAddressC1ERKS_@Qt_6 6.6.0
 _ZN17QBluetoothAddressC2ERK7QString@Qt_6 6.6.0
 _ZN17QBluetoothAddressC2ERKS_@Qt_6 6.6.0
 _ZN17QBluetoothAddressD1Ev@Qt_6 6.6.0
 _ZN17QBluetoothAddressD2Ev@Qt_6 6.6.0
 _ZN17QBluetoothAddressaSERKS_@Qt_6 6.6.0
 _ZN17QLowEnergyService11qt_metacallEN11QMetaObject4CallEiPPv@Qt_6 6.6.0
 _ZN17QLowEnergyService11qt_metacastEPKc@Qt_6 6.6.0
 _ZN17QLowEnergyService12stateChangedENS_12ServiceStateE@Qt_6 6.6.0
 _ZN17QLowEnergyService13errorOccurredENS_12ServiceErrorE@Qt_6 6.6.0
 _ZN17QLowEnergyService14descriptorReadERK20QLowEnergyDescriptorRK10QByteArray@Qt_6 6.6.0
 _ZN17QLowEnergyService14readDescriptorERK20QLowEnergyDescriptor@Qt_6 6.6.0
 _ZN17QLowEnergyService15discoverDetailsENS_13DiscoveryModeE@Qt_6 6.6.0
 _ZN17QLowEnergyService15writeDescriptorERK20QLowEnergyDescriptorRK10QByteArray@Qt_6 6.6.0
 _ZN17QLowEnergyService16staticMetaObjectE@Qt_6 6.6.0
 _ZN17QLowEnergyService17descriptorWrittenERK20QLowEnergyDescriptorRK10QByteArray@Qt_6 6.6.0
 _ZN17QLowEnergyService18characteristicReadERK24QLowEnergyCharacteristicRK10QByteArray@Qt_6 6.6.0
 _ZN17QLowEnergyService18readCharacteristicERK24QLowEnergyCharacteristic@Qt_6 6.6.0
 _ZN17QLowEnergyService19writeCharacteristicERK24QLowEnergyCharacteristicRK10QByteArrayNS_9WriteModeE@Qt_6 6.6.0
 _ZN17QLowEnergyService21characteristicChangedERK24QLowEnergyCharacteristicRK10QByteArray@Qt_6 6.6.0
 _ZN17QLowEnergyService21characteristicWrittenERK24QLowEnergyCharacteristicRK10QByteArray@Qt_6 6.6.0
 _ZN17QLowEnergyServiceC1E14QSharedPointerI24QLowEnergyServicePrivateEP7QObject@Qt_6_PRIVATE_API 6.6.0
 _ZN17QLowEnergyServiceC2E14QSharedPointerI24QLowEnergyServicePrivateEP7QObject@Qt_6_PRIVATE_API 6.6.0
 _ZN17QLowEnergyServiceD0Ev@Qt_6 6.6.0
 _ZN17QLowEnergyServiceD1Ev@Qt_6 6.6.0
 _ZN17QLowEnergyServiceD2Ev@Qt_6 6.6.0
 _ZN18QBluetoothHostInfo10setAddressERK17QBluetoothAddress@Qt_6 6.6.0
 _ZN18QBluetoothHostInfo6equalsERKS_S1_@Qt_6 6.6.0
 _ZN18QBluetoothHostInfo7setNameERK7QString@Qt_6 6.6.0
 _ZN18QBluetoothHostInfoC1ERKS_@Qt_6 6.6.0
 _ZN18QBluetoothHostInfoC1Ev@Qt_6 6.6.0
 _ZN18QBluetoothHostInfoC2ERKS_@Qt_6 6.6.0
 _ZN18QBluetoothHostInfoC2Ev@Qt_6 6.6.0
 _ZN18QBluetoothHostInfoD1Ev@Qt_6 6.6.0
 _ZN18QBluetoothHostInfoD2Ev@Qt_6 6.6.0
 _ZN18QBluetoothHostInfoaSERKS_@Qt_6 6.6.0
 _ZN20QBluetoothDeviceInfo13setDeviceUuidERK14QBluetoothUuid@Qt_6 6.6.0
 _ZN20QBluetoothDeviceInfo14setServiceDataERK14QBluetoothUuidRK10QByteArray@Qt_6 6.6.0
 _ZN20QBluetoothDeviceInfo15setServiceUuidsERK5QListI14QBluetoothUuidE@Qt_6 6.6.0
 _ZN20QBluetoothDeviceInfo19setManufacturerDataEtRK10QByteArray@Qt_6 6.6.0
 _ZN20QBluetoothDeviceInfo21setCoreConfigurationsE6QFlagsINS_17CoreConfigurationEE@Qt_6 6.6.0
 _ZN20QBluetoothDeviceInfo6equalsERKS_S1_@Qt_6 6.6.0
 _ZN20QBluetoothDeviceInfo7setNameERK7QString@Qt_6 6.6.0
 _ZN20QBluetoothDeviceInfo7setRssiEs@Qt_6 6.6.0
 _ZN20QBluetoothDeviceInfo9setCachedEb@Qt_6 6.6.0
 _ZN20QBluetoothDeviceInfoC1ERK14QBluetoothUuidRK7QStringj@Qt_6 6.6.0
 _ZN20QBluetoothDeviceInfoC1ERK17QBluetoothAddressRK7QStringj@Qt_6 6.6.0
 _ZN20QBluetoothDeviceInfoC1ERKS_@Qt_6 6.6.0
 _ZN20QBluetoothDeviceInfoC1Ev@Qt_6 6.6.0
 _ZN20QBluetoothDeviceInfoC2ERK14QBluetoothUuidRK7QStringj@Qt_6 6.6.0
 _ZN20QBluetoothDeviceInfoC2ERK17QBluetoothAddressRK7QStringj@Qt_6 6.6.0
 _ZN20QBluetoothDeviceInfoC2ERKS_@Qt_6 6.6.0
 _ZN20QBluetoothDeviceInfoC2Ev@Qt_6 6.6.0
 _ZN20QBluetoothDeviceInfoD1Ev@Qt_6 6.6.0
 _ZN20QBluetoothDeviceInfoD2Ev@Qt_6 6.6.0
 _ZN20QBluetoothDeviceInfoaSERKS_@Qt_6 6.6.0
 _ZN20QLowEnergyController10addServiceERK21QLowEnergyServiceDataP7QObject@Qt_6 6.6.0
 _ZN20QLowEnergyController10mtuChangedEi@Qt_6 6.6.0
 _ZN20QLowEnergyController11qt_metacallEN11QMetaObject4CallEiPPv@Qt_6 6.6.0
 _ZN20QLowEnergyController11qt_metacastEPKc@Qt_6 6.6.0
 _ZN20QLowEnergyController12disconnectedEv@Qt_6 6.6.0
 _ZN20QLowEnergyController12stateChangedENS_15ControllerStateE@Qt_6 6.6.0
 _ZN20QLowEnergyController13createCentralERK20QBluetoothDeviceInfoP7QObject@Qt_6 6.6.0
 _ZN20QLowEnergyController13createCentralERK20QBluetoothDeviceInfoRK17QBluetoothAddressP7QObject@Qt_6 6.6.0
 _ZN20QLowEnergyController13errorOccurredENS_5ErrorE@Qt_6 6.6.0
 _ZN20QLowEnergyController15connectToDeviceEv@Qt_6 6.6.0
 _ZN20QLowEnergyController15stopAdvertisingEv@Qt_6 6.6.0
 _ZN20QLowEnergyController16createPeripheralEP7QObject@Qt_6 6.6.0
 _ZN20QLowEnergyController16createPeripheralERK17QBluetoothAddressP7QObject@Qt_6 6.6.0
 _ZN20QLowEnergyController16discoverServicesEv@Qt_6 6.6.0
 _ZN20QLowEnergyController16startAdvertisingERK31QLowEnergyAdvertisingParametersRK25QLowEnergyAdvertisingDataS5_@Qt_6 6.6.0
 _ZN20QLowEnergyController16staticMetaObjectE@Qt_6 6.6.0
 _ZN20QLowEnergyController17connectionUpdatedERK30QLowEnergyConnectionParameters@Qt_6 6.6.0
 _ZN20QLowEnergyController17discoveryFinishedEv@Qt_6 6.6.0
 _ZN20QLowEnergyController17serviceDiscoveredERK14QBluetoothUuid@Qt_6 6.6.0
 _ZN20QLowEnergyController19createServiceObjectERK14QBluetoothUuidP7QObject@Qt_6 6.6.0
 _ZN20QLowEnergyController20disconnectFromDeviceEv@Qt_6 6.6.0
 _ZN20QLowEnergyController20setRemoteAddressTypeENS_17RemoteAddressTypeE@Qt_6 6.6.0
 _ZN20QLowEnergyController23requestConnectionUpdateERK30QLowEnergyConnectionParameters@Qt_6 6.6.0
 _ZN20QLowEnergyController8readRssiEv@Qt_6 6.6.0
 _ZN20QLowEnergyController8rssiReadEs@Qt_6 6.6.0
 _ZN20QLowEnergyController9connectedEv@Qt_6 6.6.0
 _ZN20QLowEnergyControllerC1ERK17QBluetoothAddressP7QObject@Qt_6 6.6.0
 _ZN20QLowEnergyControllerC1ERK20QBluetoothDeviceInfoRK17QBluetoothAddressP7QObject@Qt_6 6.6.0
 _ZN20QLowEnergyControllerC2ERK17QBluetoothAddressP7QObject@Qt_6 6.6.0
 _ZN20QLowEnergyControllerC2ERK20QBluetoothDeviceInfoRK17QBluetoothAddressP7QObject@Qt_6 6.6.0
 _ZN20QLowEnergyControllerD0Ev@Qt_6 6.6.0
 _ZN20QLowEnergyControllerD1Ev@Qt_6 6.6.0
 _ZN20QLowEnergyControllerD2Ev@Qt_6 6.6.0
 _ZN20QLowEnergyDescriptor6equalsERKS_S1_@Qt_6 6.6.0
 _ZN20QLowEnergyDescriptorC1E14QSharedPointerI24QLowEnergyServicePrivateEtt@Qt_6_PRIVATE_API 6.6.0
 _ZN20QLowEnergyDescriptorC1ERKS_@Qt_6 6.6.0
 _ZN20QLowEnergyDescriptorC1Ev@Qt_6 6.6.0
 _ZN20QLowEnergyDescriptorC2E14QSharedPointerI24QLowEnergyServicePrivateEtt@Qt_6_PRIVATE_API 6.6.0
 _ZN20QLowEnergyDescriptorC2ERKS_@Qt_6 6.6.0
 _ZN20QLowEnergyDescriptorC2Ev@Qt_6 6.6.0
 _ZN20QLowEnergyDescriptorD1Ev@Qt_6 6.6.0
 _ZN20QLowEnergyDescriptorD2Ev@Qt_6 6.6.0
 _ZN20QLowEnergyDescriptoraSERKS_@Qt_6 6.6.0
 _ZN21QBluetoothLocalDevice10allDevicesEv@Qt_6 6.6.0
 _ZN21QBluetoothLocalDevice11qt_metacallEN11QMetaObject4CallEiPPv@Qt_6 6.6.0
 _ZN21QBluetoothLocalDevice11qt_metacastEPKc@Qt_6 6.6.0
 _ZN21QBluetoothLocalDevice11setHostModeENS_8HostModeE@Qt_6 6.6.0
 _ZN21QBluetoothLocalDevice13errorOccurredENS_5ErrorE@Qt_6 6.6.0
 _ZN21QBluetoothLocalDevice14requestPairingERK17QBluetoothAddressNS_7PairingE@Qt_6 6.6.0
 _ZN21QBluetoothLocalDevice15deviceConnectedERK17QBluetoothAddress@Qt_6 6.6.0
 _ZN21QBluetoothLocalDevice15pairingFinishedERK17QBluetoothAddressNS_7PairingE@Qt_6 6.6.0
 _ZN21QBluetoothLocalDevice16staticMetaObjectE@Qt_6 6.6.0
 _ZN21QBluetoothLocalDevice18deviceDisconnectedERK17QBluetoothAddress@Qt_6 6.6.0
 _ZN21QBluetoothLocalDevice20hostModeStateChangedENS_8HostModeE@Qt_6 6.6.0
 _ZN21QBluetoothLocalDevice7powerOnEv@Qt_6 6.6.0
 _ZN21QBluetoothLocalDeviceC1EP7QObject@Qt_6 6.6.0
 _ZN21QBluetoothLocalDeviceC1ERK17QBluetoothAddressP7QObject@Qt_6 6.6.0
 _ZN21QBluetoothLocalDeviceC2EP7QObject@Qt_6 6.6.0
 _ZN21QBluetoothLocalDeviceC2ERK17QBluetoothAddressP7QObject@Qt_6 6.6.0
 _ZN21QBluetoothLocalDeviceD0Ev@Qt_6 6.6.0
 _ZN21QBluetoothLocalDeviceD1Ev@Qt_6 6.6.0
 _ZN21QBluetoothLocalDeviceD2Ev@Qt_6 6.6.0
 _ZN21QBluetoothServiceInfo12setAttributeEtRK8QVariant@Qt_6 6.6.0
 _ZN21QBluetoothServiceInfo15registerServiceERK17QBluetoothAddress@Qt_6 6.6.0
 _ZN21QBluetoothServiceInfo15removeAttributeEt@Qt_6 6.6.0
 _ZN21QBluetoothServiceInfo17streamingOperatorE6QDebugRKS_@Qt_6 6.6.0
 _ZN21QBluetoothServiceInfo17unregisterServiceEv@Qt_6 6.6.0
 _ZN21QBluetoothServiceInfo9setDeviceERK20QBluetoothDeviceInfo@Qt_6 6.6.0
 _ZN21QBluetoothServiceInfoC1ERKS_@Qt_6 6.6.0
 _ZN21QBluetoothServiceInfoC1Ev@Qt_6 6.6.0
 _ZN21QBluetoothServiceInfoC2ERKS_@Qt_6 6.6.0
 _ZN21QBluetoothServiceInfoC2Ev@Qt_6 6.6.0
 _ZN21QBluetoothServiceInfoD1Ev@Qt_6 6.6.0
 _ZN21QBluetoothServiceInfoD2Ev@Qt_6 6.6.0
 _ZN21QBluetoothServiceInfoaSERKS_@Qt_6 6.6.0
 _ZN21QLowEnergyServiceData17addCharacteristicERK28QLowEnergyCharacteristicData@Qt_6 6.6.0
 _ZN21QLowEnergyServiceData18addIncludedServiceEP17QLowEnergyService@Qt_6 6.6.0
 _ZN21QLowEnergyServiceData18setCharacteristicsERK5QListI28QLowEnergyCharacteristicDataE@Qt_6 6.6.0
 _ZN21QLowEnergyServiceData19setIncludedServicesERK5QListIP17QLowEnergyServiceE@Qt_6 6.6.0
 _ZN21QLowEnergyServiceData6equalsERKS_S1_@Qt_6 6.6.0
 _ZN21QLowEnergyServiceData7setTypeENS_11ServiceTypeE@Qt_6 6.6.0
 _ZN21QLowEnergyServiceData7setUuidERK14QBluetoothUuid@Qt_6 6.6.0
 _ZN21QLowEnergyServiceDataC1ERKS_@Qt_6 6.6.0
 _ZN21QLowEnergyServiceDataC1Ev@Qt_6 6.6.0
 _ZN21QLowEnergyServiceDataC2ERKS_@Qt_6 6.6.0
 _ZN21QLowEnergyServiceDataC2Ev@Qt_6 6.6.0
 _ZN21QLowEnergyServiceDataD1Ev@Qt_6 6.6.0
 _ZN21QLowEnergyServiceDataD2Ev@Qt_6 6.6.0
 _ZN21QLowEnergyServiceDataaSERKS_@Qt_6 6.6.0
 _ZN24QLowEnergyCharacteristic11CCCDDisableE@Qt_6 6.6.0
 _ZN24QLowEnergyCharacteristic20CCCDEnableIndicationE@Qt_6 6.6.0
 _ZN24QLowEnergyCharacteristic22CCCDEnableNotificationE@Qt_6 6.6.0
 _ZN24QLowEnergyCharacteristic6equalsERKS_S1_@Qt_6 6.6.0
 _ZN24QLowEnergyCharacteristicC1E14QSharedPointerI24QLowEnergyServicePrivateEt@Qt_6_PRIVATE_API 6.6.0
 _ZN24QLowEnergyCharacteristicC1ERKS_@Qt_6 6.6.0
 _ZN24QLowEnergyCharacteristicC1Ev@Qt_6 6.6.0
 _ZN24QLowEnergyCharacteristicC2E14QSharedPointerI24QLowEnergyServicePrivateEt@Qt_6_PRIVATE_API 6.6.0
 _ZN24QLowEnergyCharacteristicC2ERKS_@Qt_6 6.6.0
 _ZN24QLowEnergyCharacteristicC2Ev@Qt_6 6.6.0
 _ZN24QLowEnergyCharacteristicD1Ev@Qt_6 6.6.0
 _ZN24QLowEnergyCharacteristicD2Ev@Qt_6 6.6.0
 _ZN24QLowEnergyCharacteristicaSERKS_@Qt_6 6.6.0
 _ZN24QLowEnergyDescriptorData18setReadPermissionsEb6QFlagsIN10QBluetooth19AttAccessConstraintEE@Qt_6 6.6.0
 _ZN24QLowEnergyDescriptorData19setWritePermissionsEb6QFlagsIN10QBluetooth19AttAccessConstraintEE@Qt_6 6.6.0
 _ZN24QLowEnergyDescriptorData6equalsERKS_S1_@Qt_6 6.6.0
 _ZN24QLowEnergyDescriptorData7setUuidERK14QBluetoothUuid@Qt_6 6.6.0
 _ZN24QLowEnergyDescriptorData8setValueERK10QByteArray@Qt_6 6.6.0
 _ZN24QLowEnergyDescriptorDataC1ERK14QBluetoothUuidRK10QByteArray@Qt_6 6.6.0
 _ZN24QLowEnergyDescriptorDataC1ERKS_@Qt_6 6.6.0
 _ZN24QLowEnergyDescriptorDataC1Ev@Qt_6 6.6.0
 _ZN24QLowEnergyDescriptorDataC2ERK14QBluetoothUuidRK10QByteArray@Qt_6 6.6.0
 _ZN24QLowEnergyDescriptorDataC2ERKS_@Qt_6 6.6.0
 _ZN24QLowEnergyDescriptorDataC2Ev@Qt_6 6.6.0
 _ZN24QLowEnergyDescriptorDataD1Ev@Qt_6 6.6.0
 _ZN24QLowEnergyDescriptorDataD2Ev@Qt_6 6.6.0
 _ZN24QLowEnergyDescriptorDataaSERKS_@Qt_6 6.6.0
 _ZN25QLowEnergyAdvertisingData10setRawDataERK10QByteArray@Qt_6 6.6.0
 _ZN25QLowEnergyAdvertisingData11setServicesERK5QListI14QBluetoothUuidE@Qt_6 6.6.0
 _ZN25QLowEnergyAdvertisingData12setLocalNameERK7QString@Qt_6 6.6.0
 _ZN25QLowEnergyAdvertisingData18setDiscoverabilityENS_15DiscoverabilityE@Qt_6 6.6.0
 _ZN25QLowEnergyAdvertisingData19setManufacturerDataEtRK10QByteArray@Qt_6 6.6.0
 _ZN25QLowEnergyAdvertisingData20setIncludePowerLevelEb@Qt_6 6.6.0
 _ZN25QLowEnergyAdvertisingData6equalsERKS_S1_@Qt_6 6.6.0
 _ZN25QLowEnergyAdvertisingDataC1ERKS_@Qt_6 6.6.0
 _ZN25QLowEnergyAdvertisingDataC1Ev@Qt_6 6.6.0
 _ZN25QLowEnergyAdvertisingDataC2ERKS_@Qt_6 6.6.0
 _ZN25QLowEnergyAdvertisingDataC2Ev@Qt_6 6.6.0
 _ZN25QLowEnergyAdvertisingDataD1Ev@Qt_6 6.6.0
 _ZN25QLowEnergyAdvertisingDataD2Ev@Qt_6 6.6.0
 _ZN25QLowEnergyAdvertisingDataaSERKS_@Qt_6 6.6.0
 _ZN28QLowEnergyCharacteristicData13addDescriptorERK24QLowEnergyDescriptorData@Qt_6 6.6.0
 _ZN28QLowEnergyCharacteristicData13setPropertiesE6QFlagsIN24QLowEnergyCharacteristic12PropertyTypeEE@Qt_6 6.6.0
 _ZN28QLowEnergyCharacteristicData14setDescriptorsERK5QListI24QLowEnergyDescriptorDataE@Qt_6 6.6.0
 _ZN28QLowEnergyCharacteristicData14setValueLengthEii@Qt_6 6.6.0
 _ZN28QLowEnergyCharacteristicData18setReadConstraintsE6QFlagsIN10QBluetooth19AttAccessConstraintEE@Qt_6 6.6.0
 _ZN28QLowEnergyCharacteristicData19setWriteConstraintsE6QFlagsIN10QBluetooth19AttAccessConstraintEE@Qt_6 6.6.0
 _ZN28QLowEnergyCharacteristicData6equalsERKS_S1_@Qt_6 6.6.0
 _ZN28QLowEnergyCharacteristicData7setUuidERK14QBluetoothUuid@Qt_6 6.6.0
 _ZN28QLowEnergyCharacteristicData8setValueERK10QByteArray@Qt_6 6.6.0
 _ZN28QLowEnergyCharacteristicDataC1ERKS_@Qt_6 6.6.0
 _ZN28QLowEnergyCharacteristicDataC1Ev@Qt_6 6.6.0
 _ZN28QLowEnergyCharacteristicDataC2ERKS_@Qt_6 6.6.0
 _ZN28QLowEnergyCharacteristicDataC2Ev@Qt_6 6.6.0
 _ZN28QLowEnergyCharacteristicDataD1Ev@Qt_6 6.6.0
 _ZN28QLowEnergyCharacteristicDataD2Ev@Qt_6 6.6.0
 _ZN28QLowEnergyCharacteristicDataaSERKS_@Qt_6 6.6.0
 _ZN30QBluetoothDeviceDiscoveryAgent11qt_metacallEN11QMetaObject4CallEiPPv@Qt_6 6.6.0
 _ZN30QBluetoothDeviceDiscoveryAgent11qt_metacastEPKc@Qt_6 6.6.0
 _ZN30QBluetoothDeviceDiscoveryAgent13deviceUpdatedERK20QBluetoothDeviceInfo6QFlagsINS0_5FieldEE@Qt_6 6.6.0
 _ZN30QBluetoothDeviceDiscoveryAgent13errorOccurredENS_5ErrorE@Qt_6 6.6.0
 _ZN30QBluetoothDeviceDiscoveryAgent16deviceDiscoveredERK20QBluetoothDeviceInfo@Qt_6 6.6.0
 _ZN30QBluetoothDeviceDiscoveryAgent16staticMetaObjectE@Qt_6 6.6.0
 _ZN30QBluetoothDeviceDiscoveryAgent25supportedDiscoveryMethodsEv@Qt_6 6.6.0
 _ZN30QBluetoothDeviceDiscoveryAgent28setLowEnergyDiscoveryTimeoutEi@Qt_6 6.6.0
 _ZN30QBluetoothDeviceDiscoveryAgent4stopEv@Qt_6 6.6.0
 _ZN30QBluetoothDeviceDiscoveryAgent5startE6QFlagsINS_15DiscoveryMethodEE@Qt_6 6.6.0
 _ZN30QBluetoothDeviceDiscoveryAgent5startEv@Qt_6 6.6.0
 _ZN30QBluetoothDeviceDiscoveryAgent8canceledEv@Qt_6 6.6.0
 _ZN30QBluetoothDeviceDiscoveryAgent8finishedEv@Qt_6 6.6.0
 _ZN30QBluetoothDeviceDiscoveryAgentC1EP7QObject@Qt_6 6.6.0
 _ZN30QBluetoothDeviceDiscoveryAgentC1ERK17QBluetoothAddressP7QObject@Qt_6 6.6.0
 _ZN30QBluetoothDeviceDiscoveryAgentC2EP7QObject@Qt_6 6.6.0
 _ZN30QBluetoothDeviceDiscoveryAgentC2ERK17QBluetoothAddressP7QObject@Qt_6 6.6.0
 _ZN30QBluetoothDeviceDiscoveryAgentD0Ev@Qt_6 6.6.0
 _ZN30QBluetoothDeviceDiscoveryAgentD1Ev@Qt_6 6.6.0
 _ZN30QBluetoothDeviceDiscoveryAgentD2Ev@Qt_6 6.6.0
 _ZN30QLowEnergyConnectionParameters10setLatencyEi@Qt_6 6.6.0
 _ZN30QLowEnergyConnectionParameters16setIntervalRangeEdd@Qt_6 6.6.0
 _ZN30QLowEnergyConnectionParameters21setSupervisionTimeoutEi@Qt_6 6.6.0
 _ZN30QLowEnergyConnectionParameters6equalsERKS_S1_@Qt_6 6.6.0
 _ZN30QLowEnergyConnectionParametersC1ERKS_@Qt_6 6.6.0
 _ZN30QLowEnergyConnectionParametersC1Ev@Qt_6 6.6.0
 _ZN30QLowEnergyConnectionParametersC2ERKS_@Qt_6 6.6.0
 _ZN30QLowEnergyConnectionParametersC2Ev@Qt_6 6.6.0
 _ZN30QLowEnergyConnectionParametersD1Ev@Qt_6 6.6.0
 _ZN30QLowEnergyConnectionParametersD2Ev@Qt_6 6.6.0
 _ZN30QLowEnergyConnectionParametersaSERKS_@Qt_6 6.6.0
 _ZN31QBluetoothServiceDiscoveryAgent11qt_metacallEN11QMetaObject4CallEiPPv@Qt_6 6.6.0
 _ZN31QBluetoothServiceDiscoveryAgent11qt_metacastEPKc@Qt_6 6.6.0
 _ZN31QBluetoothServiceDiscoveryAgent13errorOccurredENS_5ErrorE@Qt_6 6.6.0
 _ZN31QBluetoothServiceDiscoveryAgent13setUuidFilterERK14QBluetoothUuid@Qt_6 6.6.0
 _ZN31QBluetoothServiceDiscoveryAgent13setUuidFilterERK5QListI14QBluetoothUuidE@Qt_6 6.6.0
 _ZN31QBluetoothServiceDiscoveryAgent16setRemoteAddressERK17QBluetoothAddress@Qt_6 6.6.0
 _ZN31QBluetoothServiceDiscoveryAgent16staticMetaObjectE@Qt_6 6.6.0
 _ZN31QBluetoothServiceDiscoveryAgent17serviceDiscoveredERK21QBluetoothServiceInfo@Qt_6 6.6.0
 _ZN31QBluetoothServiceDiscoveryAgent4stopEv@Qt_6 6.6.0
 _ZN31QBluetoothServiceDiscoveryAgent5clearEv@Qt_6 6.6.0
 _ZN31QBluetoothServiceDiscoveryAgent5startENS_13DiscoveryModeE@Qt_6 6.6.0
 _ZN31QBluetoothServiceDiscoveryAgent8canceledEv@Qt_6 6.6.0
 _ZN31QBluetoothServiceDiscoveryAgent8finishedEv@Qt_6 6.6.0
 _ZN31QBluetoothServiceDiscoveryAgentC1EP7QObject@Qt_6 6.6.0
 _ZN31QBluetoothServiceDiscoveryAgentC1ERK17QBluetoothAddressP7QObject@Qt_6 6.6.0
 _ZN31QBluetoothServiceDiscoveryAgentC2EP7QObject@Qt_6 6.6.0
 _ZN31QBluetoothServiceDiscoveryAgentC2ERK17QBluetoothAddressP7QObject@Qt_6 6.6.0
 _ZN31QBluetoothServiceDiscoveryAgentD0Ev@Qt_6 6.6.0
 _ZN31QBluetoothServiceDiscoveryAgentD1Ev@Qt_6 6.6.0
 _ZN31QBluetoothServiceDiscoveryAgentD2Ev@Qt_6 6.6.0
 _ZN31QLowEnergyAdvertisingParameters11AddressInfo6equalsERKS0_S2_@Qt_6 6.6.0
 _ZN31QLowEnergyAdvertisingParameters11setIntervalEtt@Qt_6 6.6.0
 _ZN31QLowEnergyAdvertisingParameters12setWhiteListERK5QListINS_11AddressInfoEENS_12FilterPolicyE@Qt_6 6.6.0
 _ZN31QLowEnergyAdvertisingParameters6equalsERKS_S1_@Qt_6 6.6.0
 _ZN31QLowEnergyAdvertisingParameters7setModeENS_4ModeE@Qt_6 6.6.0
 _ZN31QLowEnergyAdvertisingParametersC1ERKS_@Qt_6 6.6.0
 _ZN31QLowEnergyAdvertisingParametersC1Ev@Qt_6 6.6.0
 _ZN31QLowEnergyAdvertisingParametersC2ERKS_@Qt_6 6.6.0
 _ZN31QLowEnergyAdvertisingParametersC2Ev@Qt_6 6.6.0
 _ZN31QLowEnergyAdvertisingParametersD1Ev@Qt_6 6.6.0
 _ZN31QLowEnergyAdvertisingParametersD2Ev@Qt_6 6.6.0
 _ZN31QLowEnergyAdvertisingParametersaSERKS_@Qt_6 6.6.0
 _ZNK14QBluetoothUuid11minimumSizeEv@Qt_6 6.6.0
 _ZNK14QBluetoothUuid8toUInt16EPb@Qt_6 6.6.0
 _ZNK14QBluetoothUuid8toUInt32EPb@Qt_6 6.6.0
 (arch=!amd64 !arm64 !loong64 !ppc64 !ppc64el !riscv64 !s390x)_ZNK14QBluetoothUuid9toUInt128EN8QSysInfo6EndianE@Qt_6 6.6.0
 _ZNK14QBluetoothUuid9toUInt128Ev@Qt_6 6.6.0
 _ZNK16QBluetoothServer10metaObjectEv@Qt_6 6.6.0
 _ZNK16QBluetoothServer10serverPortEv@Qt_6 6.6.0
 _ZNK16QBluetoothServer10serverTypeEv@Qt_6 6.6.0
 _ZNK16QBluetoothServer11isListeningEv@Qt_6 6.6.0
 _ZNK16QBluetoothServer13securityFlagsEv@Qt_6 6.6.0
 _ZNK16QBluetoothServer13serverAddressEv@Qt_6 6.6.0
 _ZNK16QBluetoothServer21hasPendingConnectionsEv@Qt_6 6.6.0
 _ZNK16QBluetoothServer21maxPendingConnectionsEv@Qt_6 6.6.0
 _ZNK16QBluetoothServer5errorEv@Qt_6 6.6.0
 _ZNK16QBluetoothSocket10metaObjectEv@Qt_6 6.6.0
 _ZNK16QBluetoothSocket10socketTypeEv@Qt_6 6.6.0
 _ZNK16QBluetoothSocket11canReadLineEv@Qt_6 6.6.0
 _ZNK16QBluetoothSocket11errorStringEv@Qt_6 6.6.0
 _ZNK16QBluetoothSocket11peerAddressEv@Qt_6 6.6.0
 _ZNK16QBluetoothSocket12bytesToWriteEv@Qt_6 6.6.0
 _ZNK16QBluetoothSocket12isSequentialEv@Qt_6 6.6.0
 _ZNK16QBluetoothSocket12localAddressEv@Qt_6 6.6.0
 _ZNK16QBluetoothSocket14bytesAvailableEv@Qt_6 6.6.0
 _ZNK16QBluetoothSocket16socketDescriptorEv@Qt_6 6.6.0
 _ZNK16QBluetoothSocket22preferredSecurityFlagsEv@Qt_6 6.6.0
 _ZNK16QBluetoothSocket5errorEv@Qt_6 6.6.0
 _ZNK16QBluetoothSocket5stateEv@Qt_6 6.6.0
 _ZNK16QBluetoothSocket8peerNameEv@Qt_6 6.6.0
 _ZNK16QBluetoothSocket8peerPortEv@Qt_6 6.6.0
 _ZNK16QBluetoothSocket9localNameEv@Qt_6 6.6.0
 _ZNK16QBluetoothSocket9localPortEv@Qt_6 6.6.0
 _ZNK17QBluetoothAddress6isNullEv@Qt_6 6.6.0
 _ZNK17QBluetoothAddress8toStringEv@Qt_6 6.6.0
 _ZNK17QBluetoothAddress8toUInt64Ev@Qt_6 6.6.0
 _ZNK17QLowEnergyService10metaObjectEv@Qt_6 6.6.0
 _ZNK17QLowEnergyService11serviceNameEv@Qt_6 6.6.0
 _ZNK17QLowEnergyService11serviceUuidEv@Qt_6 6.6.0
 _ZNK17QLowEnergyService14characteristicERK14QBluetoothUuid@Qt_6 6.6.0
 _ZNK17QLowEnergyService15characteristicsEv@Qt_6 6.6.0
 _ZNK17QLowEnergyService16includedServicesEv@Qt_6 6.6.0
 _ZNK17QLowEnergyService4typeEv@Qt_6 6.6.0
 _ZNK17QLowEnergyService5errorEv@Qt_6 6.6.0
 _ZNK17QLowEnergyService5stateEv@Qt_6 6.6.0
 _ZNK17QLowEnergyService8containsERK20QLowEnergyDescriptor@Qt_6 6.6.0
 _ZNK17QLowEnergyService8containsERK24QLowEnergyCharacteristic@Qt_6 6.6.0
 _ZNK18QBluetoothHostInfo4nameEv@Qt_6 6.6.0
 _ZNK18QBluetoothHostInfo7addressEv@Qt_6 6.6.0
 _ZNK20QBluetoothDeviceInfo10deviceUuidEv@Qt_6 6.6.0
 _ZNK20QBluetoothDeviceInfo10serviceIdsEv@Qt_6 6.6.0
 _ZNK20QBluetoothDeviceInfo11serviceDataERK14QBluetoothUuid@Qt_6 6.6.0
 _ZNK20QBluetoothDeviceInfo11serviceDataEv@Qt_6 6.6.0
 _ZNK20QBluetoothDeviceInfo12serviceUuidsEv@Qt_6 6.6.0
 _ZNK20QBluetoothDeviceInfo14serviceClassesEv@Qt_6 6.6.0
 _ZNK20QBluetoothDeviceInfo15manufacturerIdsEv@Qt_6 6.6.0
 _ZNK20QBluetoothDeviceInfo16majorDeviceClassEv@Qt_6 6.6.0
 _ZNK20QBluetoothDeviceInfo16manufacturerDataEt@Qt_6 6.6.0
 _ZNK20QBluetoothDeviceInfo16manufacturerDataEv@Qt_6 6.6.0
 _ZNK20QBluetoothDeviceInfo16minorDeviceClassEv@Qt_6 6.6.0
 _ZNK20QBluetoothDeviceInfo18coreConfigurationsEv@Qt_6 6.6.0
 _ZNK20QBluetoothDeviceInfo4nameEv@Qt_6 6.6.0
 _ZNK20QBluetoothDeviceInfo4rssiEv@Qt_6 6.6.0
 _ZNK20QBluetoothDeviceInfo7addressEv@Qt_6 6.6.0
 _ZNK20QBluetoothDeviceInfo7isValidEv@Qt_6 6.6.0
 _ZNK20QBluetoothDeviceInfo8isCachedEv@Qt_6 6.6.0
 _ZNK20QLowEnergyController10metaObjectEv@Qt_6 6.6.0
 _ZNK20QLowEnergyController10remoteNameEv@Qt_6 6.6.0
 _ZNK20QLowEnergyController11errorStringEv@Qt_6 6.6.0
 _ZNK20QLowEnergyController12localAddressEv@Qt_6 6.6.0
 _ZNK20QLowEnergyController13remoteAddressEv@Qt_6 6.6.0
 _ZNK20QLowEnergyController16remoteDeviceUuidEv@Qt_6 6.6.0
 _ZNK20QLowEnergyController17remoteAddressTypeEv@Qt_6 6.6.0
 _ZNK20QLowEnergyController3mtuEv@Qt_6 6.6.0
 _ZNK20QLowEnergyController4roleEv@Qt_6 6.6.0
 _ZNK20QLowEnergyController5errorEv@Qt_6 6.6.0
 _ZNK20QLowEnergyController5stateEv@Qt_6 6.6.0
 _ZNK20QLowEnergyController8servicesEv@Qt_6 6.6.0
 _ZNK20QLowEnergyDescriptor20characteristicHandleEv@Qt_6 6.6.0
 _ZNK20QLowEnergyDescriptor4nameEv@Qt_6 6.6.0
 _ZNK20QLowEnergyDescriptor4typeEv@Qt_6 6.6.0
 _ZNK20QLowEnergyDescriptor4uuidEv@Qt_6 6.6.0
 _ZNK20QLowEnergyDescriptor5valueEv@Qt_6 6.6.0
 _ZNK20QLowEnergyDescriptor6handleEv@Qt_6 6.6.0
 _ZNK20QLowEnergyDescriptor7isValidEv@Qt_6 6.6.0
 _ZNK21QBluetoothLocalDevice10metaObjectEv@Qt_6 6.6.0
 _ZNK21QBluetoothLocalDevice13pairingStatusERK17QBluetoothAddress@Qt_6 6.6.0
 _ZNK21QBluetoothLocalDevice16connectedDevicesEv@Qt_6 6.6.0
 _ZNK21QBluetoothLocalDevice4nameEv@Qt_6 6.6.0
 _ZNK21QBluetoothLocalDevice7addressEv@Qt_6 6.6.0
 _ZNK21QBluetoothLocalDevice7isValidEv@Qt_6 6.6.0
 _ZNK21QBluetoothLocalDevice8hostModeEv@Qt_6 6.6.0
 _ZNK21QBluetoothServiceInfo10attributesEv@Qt_6 6.6.0
 _ZNK21QBluetoothServiceInfo10isCompleteEv@Qt_6 6.6.0
 _ZNK21QBluetoothServiceInfo12isRegisteredEv@Qt_6 6.6.0
 _ZNK21QBluetoothServiceInfo13serverChannelEv@Qt_6 6.6.0
 _ZNK21QBluetoothServiceInfo14socketProtocolEv@Qt_6 6.6.0
 _ZNK21QBluetoothServiceInfo17serviceClassUuidsEv@Qt_6 6.6.0
 _ZNK21QBluetoothServiceInfo18protocolDescriptorEN14QBluetoothUuid12ProtocolUuidE@Qt_6 6.6.0
 _ZNK21QBluetoothServiceInfo26protocolServiceMultiplexerEv@Qt_6 6.6.0
 _ZNK21QBluetoothServiceInfo6deviceEv@Qt_6 6.6.0
 _ZNK21QBluetoothServiceInfo7isValidEv@Qt_6 6.6.0
 _ZNK21QBluetoothServiceInfo8containsEt@Qt_6 6.6.0
 _ZNK21QBluetoothServiceInfo9attributeEt@Qt_6 6.6.0
 _ZNK21QLowEnergyServiceData15characteristicsEv@Qt_6 6.6.0
 _ZNK21QLowEnergyServiceData16includedServicesEv@Qt_6 6.6.0
 _ZNK21QLowEnergyServiceData4typeEv@Qt_6 6.6.0
 _ZNK21QLowEnergyServiceData4uuidEv@Qt_6 6.6.0
 _ZNK21QLowEnergyServiceData7isValidEv@Qt_6 6.6.0
 _ZNK24QLowEnergyCharacteristic10descriptorERK14QBluetoothUuid@Qt_6 6.6.0
 _ZNK24QLowEnergyCharacteristic10propertiesEv@Qt_6 6.6.0
 _ZNK24QLowEnergyCharacteristic11descriptorsEv@Qt_6 6.6.0
 _ZNK24QLowEnergyCharacteristic15attributeHandleEv@Qt_6 6.6.0
 _ZNK24QLowEnergyCharacteristic33clientCharacteristicConfigurationEv@Qt_6 6.6.0
 _ZNK24QLowEnergyCharacteristic4nameEv@Qt_6 6.6.0
 _ZNK24QLowEnergyCharacteristic4uuidEv@Qt_6 6.6.0
 _ZNK24QLowEnergyCharacteristic5valueEv@Qt_6 6.6.0
 _ZNK24QLowEnergyCharacteristic6handleEv@Qt_6 6.6.0
 _ZNK24QLowEnergyCharacteristic7isValidEv@Qt_6 6.6.0
 _ZNK24QLowEnergyDescriptorData10isReadableEv@Qt_6 6.6.0
 _ZNK24QLowEnergyDescriptorData10isWritableEv@Qt_6 6.6.0
 _ZNK24QLowEnergyDescriptorData15readConstraintsEv@Qt_6 6.6.0
 _ZNK24QLowEnergyDescriptorData16writeConstraintsEv@Qt_6 6.6.0
 _ZNK24QLowEnergyDescriptorData4uuidEv@Qt_6 6.6.0
 _ZNK24QLowEnergyDescriptorData5valueEv@Qt_6 6.6.0
 _ZNK24QLowEnergyDescriptorData7isValidEv@Qt_6 6.6.0
 _ZNK25QLowEnergyAdvertisingData14manufacturerIdEv@Qt_6 6.6.0
 _ZNK25QLowEnergyAdvertisingData15discoverabilityEv@Qt_6 6.6.0
 _ZNK25QLowEnergyAdvertisingData16manufacturerDataEv@Qt_6 6.6.0
 _ZNK25QLowEnergyAdvertisingData17includePowerLevelEv@Qt_6 6.6.0
 _ZNK25QLowEnergyAdvertisingData7rawDataEv@Qt_6 6.6.0
 _ZNK25QLowEnergyAdvertisingData8servicesEv@Qt_6 6.6.0
 _ZNK25QLowEnergyAdvertisingData9localNameEv@Qt_6 6.6.0
 _ZNK28QLowEnergyCharacteristicData10propertiesEv@Qt_6 6.6.0
 _ZNK28QLowEnergyCharacteristicData11descriptorsEv@Qt_6 6.6.0
 _ZNK28QLowEnergyCharacteristicData15readConstraintsEv@Qt_6 6.6.0
 _ZNK28QLowEnergyCharacteristicData16writeConstraintsEv@Qt_6 6.6.0
 _ZNK28QLowEnergyCharacteristicData18maximumValueLengthEv@Qt_6 6.6.0
 _ZNK28QLowEnergyCharacteristicData18minimumValueLengthEv@Qt_6 6.6.0
 _ZNK28QLowEnergyCharacteristicData4uuidEv@Qt_6 6.6.0
 _ZNK28QLowEnergyCharacteristicData5valueEv@Qt_6 6.6.0
 _ZNK28QLowEnergyCharacteristicData7isValidEv@Qt_6 6.6.0
 _ZNK30QBluetoothDeviceDiscoveryAgent10metaObjectEv@Qt_6 6.6.0
 _ZNK30QBluetoothDeviceDiscoveryAgent11errorStringEv@Qt_6 6.6.0
 _ZNK30QBluetoothDeviceDiscoveryAgent17discoveredDevicesEv@Qt_6 6.6.0
 _ZNK30QBluetoothDeviceDiscoveryAgent25lowEnergyDiscoveryTimeoutEv@Qt_6 6.6.0
 _ZNK30QBluetoothDeviceDiscoveryAgent5errorEv@Qt_6 6.6.0
 _ZNK30QBluetoothDeviceDiscoveryAgent8isActiveEv@Qt_6 6.6.0
 _ZNK30QLowEnergyConnectionParameters15maximumIntervalEv@Qt_6 6.6.0
 _ZNK30QLowEnergyConnectionParameters15minimumIntervalEv@Qt_6 6.6.0
 _ZNK30QLowEnergyConnectionParameters18supervisionTimeoutEv@Qt_6 6.6.0
 _ZNK30QLowEnergyConnectionParameters7latencyEv@Qt_6 6.6.0
 _ZNK31QBluetoothServiceDiscoveryAgent10metaObjectEv@Qt_6 6.6.0
 _ZNK31QBluetoothServiceDiscoveryAgent10uuidFilterEv@Qt_6 6.6.0
 _ZNK31QBluetoothServiceDiscoveryAgent11errorStringEv@Qt_6 6.6.0
 _ZNK31QBluetoothServiceDiscoveryAgent13remoteAddressEv@Qt_6 6.6.0
 _ZNK31QBluetoothServiceDiscoveryAgent18discoveredServicesEv@Qt_6 6.6.0
 _ZNK31QBluetoothServiceDiscoveryAgent5errorEv@Qt_6 6.6.0
 _ZNK31QBluetoothServiceDiscoveryAgent8isActiveEv@Qt_6 6.6.0
 _ZNK31QLowEnergyAdvertisingParameters12filterPolicyEv@Qt_6 6.6.0
 _ZNK31QLowEnergyAdvertisingParameters15maximumIntervalEv@Qt_6 6.6.0
 _ZNK31QLowEnergyAdvertisingParameters15minimumIntervalEv@Qt_6 6.6.0
 _ZNK31QLowEnergyAdvertisingParameters4modeEv@Qt_6 6.6.0
 _ZNK31QLowEnergyAdvertisingParameters9whiteListEv@Qt_6 6.6.0
 _ZTI12QDBusContext@Qt_6 6.6.0
 _ZTI16QBluetoothServer@Qt_6 6.6.0
 _ZTI16QBluetoothSocket@Qt_6 6.6.0
 _ZTI17QLowEnergyService@Qt_6 6.6.0
 _ZTI20QLowEnergyController@Qt_6 6.6.0
 _ZTI21QBluetoothLocalDevice@Qt_6 6.6.0
 _ZTI30QBluetoothDeviceDiscoveryAgent@Qt_6 6.6.0
 _ZTI31QBluetoothServiceDiscoveryAgent@Qt_6 6.6.0
 (arch=armel riscv64)_ZTIN9__gnu_cxx7__mutexE@Qt_6 6.6.0
 (arch=armel armhf)_ZTISt19_Sp_make_shared_tag@Qt_6 6.6.0
 _ZTIZN9QMetaType17registerConverterI14QSharedPointerI24QLowEnergyServicePrivateEP7QObjectN9QtPrivate27QSmartPointerConvertFunctorIS3_EEEEbT1_EUlPKvPvE_@Qt_6_PRIVATE_API 6.6.0
 _ZTIZN9QMetaType17registerConverterI4QMapI15QDBusObjectPathS1_I7QStringS1_IS3_8QVariantEEE9QIterableI16QMetaAssociationEN9QtPrivate34QAssociativeIterableConvertFunctorIS7_EEEEbT1_EUlPKvPvE_@Qt_6 6.6.0
 _ZTIZN9QMetaType17registerConverterI4QMapI7QString12QDBusVariantE9QIterableI16QMetaAssociationEN9QtPrivate34QAssociativeIterableConvertFunctorIS4_EEEEbT1_EUlPKvPvE_@Qt_6 6.6.0
 _ZTIZN9QMetaType17registerConverterI4QMapI7QStringS1_IS2_8QVariantEE9QIterableI16QMetaAssociationEN9QtPrivate34QAssociativeIterableConvertFunctorIS5_EEEEbT1_EUlPKvPvE_@Qt_6 6.6.0
 _ZTIZN9QMetaType17registerConverterI4QMapIj7QStringE9QIterableI16QMetaAssociationEN9QtPrivate34QAssociativeIterableConvertFunctorIS3_EEEEbT1_EUlPKvPvE_@Qt_6 6.6.0
 _ZTIZN9QMetaType17registerConverterI4QMapIt12QDBusVariantE9QIterableI16QMetaAssociationEN9QtPrivate34QAssociativeIterableConvertFunctorIS3_EEEEbT1_EUlPKvPvE_@Qt_6 6.6.0
 _ZTIZN9QMetaType17registerConverterI5QListI15QDBusObjectPathE9QIterableI13QMetaSequenceEN9QtPrivate33QSequentialIterableConvertFunctorIS3_EEEEbT1_EUlPKvPvE_@Qt_6 6.6.0
 _ZTIZN9QMetaType17registerConverterI5QListItE9QIterableI13QMetaSequenceEN9QtPrivate33QSequentialIterableConvertFunctorIS2_EEEEbT1_EUlPKvPvE_@Qt_6 6.6.0
 _ZTIZN9QMetaType19registerMutableViewI4QMapI15QDBusObjectPathS1_I7QStringS1_IS3_8QVariantEEE9QIterableI16QMetaAssociationEN9QtPrivate38QAssociativeIterableMutableViewFunctorIS7_EEEEbT1_EUlPvSF_E_@Qt_6 6.6.0
 _ZTIZN9QMetaType19registerMutableViewI4QMapI7QString12QDBusVariantE9QIterableI16QMetaAssociationEN9QtPrivate38QAssociativeIterableMutableViewFunctorIS4_EEEEbT1_EUlPvSC_E_@Qt_6 6.6.0
 _ZTIZN9QMetaType19registerMutableViewI4QMapI7QStringS1_IS2_8QVariantEE9QIterableI16QMetaAssociationEN9QtPrivate38QAssociativeIterableMutableViewFunctorIS5_EEEEbT1_EUlPvSD_E_@Qt_6 6.6.0
 _ZTIZN9QMetaType19registerMutableViewI4QMapIj7QStringE9QIterableI16QMetaAssociationEN9QtPrivate38QAssociativeIterableMutableViewFunctorIS3_EEEEbT1_EUlPvSB_E_@Qt_6 6.6.0
 _ZTIZN9QMetaType19registerMutableViewI4QMapIt12QDBusVariantE9QIterableI16QMetaAssociationEN9QtPrivate38QAssociativeIterableMutableViewFunctorIS3_EEEEbT1_EUlPvSB_E_@Qt_6 6.6.0
 _ZTIZN9QMetaType19registerMutableViewI5QListI15QDBusObjectPathE9QIterableI13QMetaSequenceEN9QtPrivate37QSequentialIterableMutableViewFunctorIS3_EEEEbT1_EUlPvSB_E_@Qt_6 6.6.0
 _ZTIZN9QMetaType19registerMutableViewI5QListItE9QIterableI13QMetaSequenceEN9QtPrivate37QSequentialIterableMutableViewFunctorIS2_EEEEbT1_EUlPvSA_E_@Qt_6 6.6.0
 _ZTS12QDBusContext@Qt_6 6.6.0
 _ZTS16QBluetoothServer@Qt_6 6.6.0
 _ZTS16QBluetoothSocket@Qt_6 6.6.0
 _ZTS17QLowEnergyService@Qt_6 6.6.0
 _ZTS20QLowEnergyController@Qt_6 6.6.0
 _ZTS21QBluetoothLocalDevice@Qt_6 6.6.0
 _ZTS30QBluetoothDeviceDiscoveryAgent@Qt_6 6.6.0
 _ZTS31QBluetoothServiceDiscoveryAgent@Qt_6 6.6.0
 (arch=armel riscv64)_ZTSN9__gnu_cxx7__mutexE@Qt_6 6.6.0
 _ZTSZN9QMetaType17registerConverterI14QSharedPointerI24QLowEnergyServicePrivateEP7QObjectN9QtPrivate27QSmartPointerConvertFunctorIS3_EEEEbT1_EUlPKvPvE_@Qt_6_PRIVATE_API 6.6.0
 _ZTSZN9QMetaType17registerConverterI4QMapI15QDBusObjectPathS1_I7QStringS1_IS3_8QVariantEEE9QIterableI16QMetaAssociationEN9QtPrivate34QAssociativeIterableConvertFunctorIS7_EEEEbT1_EUlPKvPvE_@Qt_6 6.6.0
 _ZTSZN9QMetaType17registerConverterI4QMapI7QString12QDBusVariantE9QIterableI16QMetaAssociationEN9QtPrivate34QAssociativeIterableConvertFunctorIS4_EEEEbT1_EUlPKvPvE_@Qt_6 6.6.0
 _ZTSZN9QMetaType17registerConverterI4QMapI7QStringS1_IS2_8QVariantEE9QIterableI16QMetaAssociationEN9QtPrivate34QAssociativeIterableConvertFunctorIS5_EEEEbT1_EUlPKvPvE_@Qt_6 6.6.0
 _ZTSZN9QMetaType17registerConverterI4QMapIj7QStringE9QIterableI16QMetaAssociationEN9QtPrivate34QAssociativeIterableConvertFunctorIS3_EEEEbT1_EUlPKvPvE_@Qt_6 6.6.0
 _ZTSZN9QMetaType17registerConverterI4QMapIt12QDBusVariantE9QIterableI16QMetaAssociationEN9QtPrivate34QAssociativeIterableConvertFunctorIS3_EEEEbT1_EUlPKvPvE_@Qt_6 6.6.0
 _ZTSZN9QMetaType17registerConverterI5QListI15QDBusObjectPathE9QIterableI13QMetaSequenceEN9QtPrivate33QSequentialIterableConvertFunctorIS3_EEEEbT1_EUlPKvPvE_@Qt_6 6.6.0
 _ZTSZN9QMetaType17registerConverterI5QListItE9QIterableI13QMetaSequenceEN9QtPrivate33QSequentialIterableConvertFunctorIS2_EEEEbT1_EUlPKvPvE_@Qt_6 6.6.0
 _ZTSZN9QMetaType19registerMutableViewI4QMapI15QDBusObjectPathS1_I7QStringS1_IS3_8QVariantEEE9QIterableI16QMetaAssociationEN9QtPrivate38QAssociativeIterableMutableViewFunctorIS7_EEEEbT1_EUlPvSF_E_@Qt_6 6.6.0
 _ZTSZN9QMetaType19registerMutableViewI4QMapI7QString12QDBusVariantE9QIterableI16QMetaAssociationEN9QtPrivate38QAssociativeIterableMutableViewFunctorIS4_EEEEbT1_EUlPvSC_E_@Qt_6 6.6.0
 _ZTSZN9QMetaType19registerMutableViewI4QMapI7QStringS1_IS2_8QVariantEE9QIterableI16QMetaAssociationEN9QtPrivate38QAssociativeIterableMutableViewFunctorIS5_EEEEbT1_EUlPvSD_E_@Qt_6 6.6.0
 _ZTSZN9QMetaType19registerMutableViewI4QMapIj7QStringE9QIterableI16QMetaAssociationEN9QtPrivate38QAssociativeIterableMutableViewFunctorIS3_EEEEbT1_EUlPvSB_E_@Qt_6 6.6.0
 _ZTSZN9QMetaType19registerMutableViewI4QMapIt12QDBusVariantE9QIterableI16QMetaAssociationEN9QtPrivate38QAssociativeIterableMutableViewFunctorIS3_EEEEbT1_EUlPvSB_E_@Qt_6 6.6.0
 _ZTSZN9QMetaType19registerMutableViewI5QListI15QDBusObjectPathE9QIterableI13QMetaSequenceEN9QtPrivate37QSequentialIterableMutableViewFunctorIS3_EEEEbT1_EUlPvSB_E_@Qt_6 6.6.0
 _ZTSZN9QMetaType19registerMutableViewI5QListItE9QIterableI13QMetaSequenceEN9QtPrivate37QSequentialIterableMutableViewFunctorIS2_EEEEbT1_EUlPvSA_E_@Qt_6 6.6.0
 _ZTV16QBluetoothServer@Qt_6 6.6.0
 _ZTV16QBluetoothSocket@Qt_6 6.6.0
 _ZTV17QLowEnergyService@Qt_6 6.6.0
 _ZTV20QLowEnergyController@Qt_6 6.6.0
 _ZTV21QBluetoothLocalDevice@Qt_6 6.6.0
 _ZTV30QBluetoothDeviceDiscoveryAgent@Qt_6 6.6.0
 _ZTV31QBluetoothServiceDiscoveryAgent@Qt_6 6.6.0
 (optional=templinst)_ZZN9QMetaType21registerConverterImplI14QSharedPointerI24QLowEnergyServicePrivateEP7QObjectEEbSt8functionIFbPKvPvEES_S_E10unregister@Qt_6_PRIVATE_API 6.6.0
 (optional=templinst)_ZZN9QMetaType21registerConverterImplI4QMapI15QDBusObjectPathS1_I7QStringS1_IS3_8QVariantEEE9QIterableI16QMetaAssociationEEEbSt8functionIFbPKvPvEES_S_E10unregister@Qt_6 6.6.0
 (optional=templinst)_ZZN9QMetaType21registerConverterImplI4QMapI7QString12QDBusVariantE9QIterableI16QMetaAssociationEEEbSt8functionIFbPKvPvEES_S_E10unregister@Qt_6 6.6.0
 (optional=templinst)_ZZN9QMetaType21registerConverterImplI4QMapI7QStringS1_IS2_8QVariantEE9QIterableI16QMetaAssociationEEEbSt8functionIFbPKvPvEES_S_E10unregister@Qt_6 6.6.0
 (optional=templinst)_ZZN9QMetaType21registerConverterImplI4QMapIj7QStringE9QIterableI16QMetaAssociationEEEbSt8functionIFbPKvPvEES_S_E10unregister@Qt_6 6.6.0
 (optional=templinst)_ZZN9QMetaType21registerConverterImplI4QMapIt12QDBusVariantE9QIterableI16QMetaAssociationEEEbSt8functionIFbPKvPvEES_S_E10unregister@Qt_6 6.6.0
 (optional=templinst)_ZZN9QMetaType21registerConverterImplI5QListI15QDBusObjectPathE9QIterableI13QMetaSequenceEEEbSt8functionIFbPKvPvEES_S_E10unregister@Qt_6 6.6.0
 (optional=templinst)_ZZN9QMetaType21registerConverterImplI5QListItE9QIterableI13QMetaSequenceEEEbSt8functionIFbPKvPvEES_S_E10unregister@Qt_6 6.6.0
 (optional=templinst)_ZZN9QMetaType23registerMutableViewImplI4QMapI15QDBusObjectPathS1_I7QStringS1_IS3_8QVariantEEE9QIterableI16QMetaAssociationEEEbSt8functionIFbPvSC_EES_S_E10unregister@Qt_6 6.6.0
 (optional=templinst)_ZZN9QMetaType23registerMutableViewImplI4QMapI7QString12QDBusVariantE9QIterableI16QMetaAssociationEEEbSt8functionIFbPvS9_EES_S_E10unregister@Qt_6 6.6.0
 (optional=templinst)_ZZN9QMetaType23registerMutableViewImplI4QMapI7QStringS1_IS2_8QVariantEE9QIterableI16QMetaAssociationEEEbSt8functionIFbPvSA_EES_S_E10unregister@Qt_6 6.6.0
 (optional=templinst)_ZZN9QMetaType23registerMutableViewImplI4QMapIj7QStringE9QIterableI16QMetaAssociationEEEbSt8functionIFbPvS8_EES_S_E10unregister@Qt_6 6.6.0
 (optional=templinst)_ZZN9QMetaType23registerMutableViewImplI4QMapIt12QDBusVariantE9QIterableI16QMetaAssociationEEEbSt8functionIFbPvS8_EES_S_E10unregister@Qt_6 6.6.0
 (optional=templinst)_ZZN9QMetaType23registerMutableViewImplI5QListI15QDBusObjectPathE9QIterableI13QMetaSequenceEEEbSt8functionIFbPvS8_EES_S_E10unregister@Qt_6 6.6.0
 (optional=templinst)_ZZN9QMetaType23registerMutableViewImplI5QListItE9QIterableI13QMetaSequenceEEEbSt8functionIFbPvS7_EES_S_E10unregister@Qt_6 6.6.0
 _ZZNSt19_Sp_make_shared_tag5_S_tiEvE5__tag@Qt_6 6.6.0
 _Zls6QDebugRK14QBluetoothUuid@Qt_6 6.6.0
